target datalayout = "e-m:e-p270:32:32-p271:32:32-p272:64:64-i64:64-i128:128-f80:128-n8:16:32:64-S128"
target triple = "x86_64-pc-linux-gnu"

%struct.in_addr = type { i32 }
%struct.Py_buffer = type { ptr, ptr, i64, i64, i32, i32, ptr, ptr, ptr, ptr, ptr }

@PyExc_OSError = external global ptr, align 8
@.str.73 = private unnamed_addr constant [37 x i8] c"packed IP wrong length for inet_ntoa\00", align 1

; Function Attrs: nounwind uwtable
define internal ptr @_socket_socket_inet_ntoa_impl(ptr noundef %0, ptr noundef %1) #0 {
  %3 = alloca ptr, align 8
  %4 = alloca ptr, align 8
  %5 = alloca ptr, align 8
  %6 = alloca %struct.in_addr, align 4
  %7 = alloca i32, align 4
  store ptr %0, ptr %4, align 8, !tbaa !8
  store ptr %1, ptr %5, align 8, !tbaa !8
  call void @llvm.lifetime.start.p0(i64 4, ptr %6) #10
  %8 = load ptr, ptr %5, align 8, !tbaa !8
  %9 = getelementptr inbounds nuw %struct.Py_buffer, ptr %8, i32 0, i32 2
  %10 = load i64, ptr %9, align 8, !tbaa !39
  %11 = icmp ne i64 %10, 4
  br i1 %11, label %12, label %15

12:                                               ; preds = %2
  %13 = load ptr, ptr @PyExc_OSError, align 8, !tbaa !3
  call void @PyErr_SetString(ptr noundef %13, ptr noundef @.str.73)
  %14 = load ptr, ptr %5, align 8, !tbaa !8
  call void @PyBuffer_Release(ptr noundef %14)
  store ptr null, ptr %3, align 8
  store i32 1, ptr %7, align 4
  br label %27

15:                                               ; preds = %2
  %16 = load ptr, ptr %5, align 8, !tbaa !8
  %17 = getelementptr inbounds nuw %struct.Py_buffer, ptr %16, i32 0, i32 0
  %18 = load ptr, ptr %17, align 8, !tbaa !36
  %19 = load ptr, ptr %5, align 8, !tbaa !8
  %20 = getelementptr inbounds nuw %struct.Py_buffer, ptr %19, i32 0, i32 2
  %21 = load i64, ptr %20, align 8, !tbaa !39
  call void @llvm.memcpy.p0.p0.i64(ptr align 4 %6, ptr align 1 %18, i64 %21, i1 false)
  %22 = load ptr, ptr %5, align 8, !tbaa !8
  call void @PyBuffer_Release(ptr noundef %22)
  %23 = getelementptr inbounds nuw %struct.in_addr, ptr %6, i32 0, i32 0
  %24 = load i32, ptr %23, align 4
  %25 = call ptr @inet_ntoa(i32 %24) #10
  %26 = call ptr @PyUnicode_FromString(ptr noundef %25)
  store ptr %26, ptr %3, align 8
  store i32 1, ptr %7, align 4
  br label %27

27:                                               ; preds = %15, %12
  call void @llvm.lifetime.end.p0(i64 4, ptr %6) #10
  %28 = load ptr, ptr %3, align 8
  ret ptr %28
}

; Function Attrs: nounwind uwtable
define internal ptr @_socket_socket_inet_ntoa(ptr noundef %0, ptr noundef %1) #0 {
  %3 = alloca ptr, align 8
  %4 = alloca ptr, align 8
  %5 = alloca ptr, align 8
  %6 = alloca %struct.Py_buffer, align 8
  store ptr %0, ptr %3, align 8, !tbaa !3
  store ptr %1, ptr %4, align 8, !tbaa !3
  call void @llvm.lifetime.start.p0(i64 8, ptr %5) #10
  store ptr null, ptr %5, align 8, !tbaa !3
  call void @llvm.lifetime.start.p0(i64 80, ptr %6) #10
  call void @llvm.memset.p0.i64(ptr align 8 %6, i8 0, i64 80, i1 false)
  %7 = load ptr, ptr %4, align 8, !tbaa !3
  %8 = call i32 @PyObject_GetBuffer(ptr noundef %7, ptr noundef %6, i32 noundef 0)
  %9 = icmp ne i32 %8, 0
  br i1 %9, label %10, label %11

10:                                               ; preds = %2
  br label %14

11:                                               ; preds = %2
  %12 = load ptr, ptr %3, align 8, !tbaa !3
  %13 = call ptr @_socket_socket_inet_ntoa_impl(ptr noundef %12, ptr noundef %6)
  store ptr %13, ptr %5, align 8, !tbaa !3
  br label %14

14:                                               ; preds = %11, %10
  %15 = getelementptr inbounds nuw %struct.Py_buffer, ptr %6, i32 0, i32 1
  %16 = load ptr, ptr %15, align 8, !tbaa !60
  %17 = icmp ne ptr %16, null
  br i1 %17, label %18, label %19

18:                                               ; preds = %14
  call void @PyBuffer_Release(ptr noundef %6)
  br label %19

19:                                               ; preds = %18, %14
  %20 = load ptr, ptr %5, align 8, !tbaa !3
  call void @llvm.lifetime.end.p0(i64 80, ptr %6) #10
  call void @llvm.lifetime.end.p0(i64 8, ptr %5) #10
  ret ptr %20
}