; Function Attrs: nounwind uwtable
define internal ptr @_socket_socket_inet_ntoa(ptr readnone captures(none) %0, ptr noundef %1) #0 {
  %3 = alloca %struct.Py_buffer, align 8
  call void @llvm.lifetime.start.p0(i64 80, ptr nonnull %3) #13
  call void @llvm.memset.p0.i64(ptr noundef nonnull align 8 dereferenceable(80) %3, i8 0, i64 80, i1 false)
  %4 = call i32 @PyObject_GetBuffer(ptr noundef %1, ptr noundef nonnull %3, i32 noundef 0) #13
  %.not = icmp eq i32 %4, 0
  br i1 %.not, label %5, label %_socket_socket_inet_ntoa_impl.exit

5:                                                ; preds = %2
  %6 = getelementptr inbounds nuw i8, ptr %3, i64 16
  %7 = load i64, ptr %6, align 8, !tbaa !31
  %.not.i = icmp eq i64 %7, 4
  br i1 %.not.i, label %10, label %8

8:                                                ; preds = %5
  %9 = load ptr, ptr @PyExc_OSError, align 8, !tbaa !19
  call void @PyErr_SetString(ptr noundef %9, ptr noundef nonnull @.str.73) #13
  call void @PyBuffer_Release(ptr noundef nonnull %3) #13
  br label %_socket_socket_inet_ntoa_impl.exit

10:                                               ; preds = %5
  %11 = load ptr, ptr %3, align 8, !tbaa !27
  %12 = load i32, ptr %11, align 1
  call void @PyBuffer_Release(ptr noundef nonnull %3) #13
  %13 = call ptr @inet_ntoa(i32 %12) #13
  %14 = call ptr @PyUnicode_FromString(ptr noundef %13) #13
  br label %_socket_socket_inet_ntoa_impl.exit

_socket_socket_inet_ntoa_impl.exit:               ; preds = %10, %8, %2
  %.0 = phi ptr [ null, %2 ], [ null, %8 ], [ %14, %10 ]
  %15 = getelementptr inbounds nuw i8, ptr %3, i64 8
  %16 = load ptr, ptr %15, align 8, !tbaa !48
  %.not3 = icmp eq ptr %16, null
  br i1 %.not3, label %18, label %17

17:                                               ; preds = %_socket_socket_inet_ntoa_impl.exit
  call void @PyBuffer_Release(ptr noundef nonnull %3) #13
  br label %18

18:                                               ; preds = %17, %_socket_socket_inet_ntoa_impl.exit
  call void @llvm.lifetime.end.p0(i64 80, ptr nonnull %3) #13
  ret ptr %.0
}